@smo:100

_ZN2al16isPadTriggerLeftEi
_ZN2al17isPadTriggerRightEi
_ZN2al14isPadTriggerUpEi
_ZN2al16isPadTriggerDownEi
_ZN2al13isPadTriggerAEi
_ZN2al14isPadTriggerZLEi
_ZN2al13isPadTriggerLEi
_ZN2al14isPadTriggerZREi

_ZN2al10isPadHoldAEi
_ZN2al10isPadHoldBEi
_ZN2al10isPadHoldXEi
_ZN2al10isPadHoldYEi
_ZN2al11isPadHoldUpEi
_ZN2al13isPadHoldDownEi
_ZN2al13isPadHoldLeftEi
_ZN2al14isPadHoldRightEi
_ZN2al23isPadHoldPressLeftStickEi
_ZN2al24isPadHoldPressRightStickEi
_ZN2al11isPadHoldZREi
_ZN2al11isPadHoldZLEi
_ZN2al10isPadHoldLEi
_ZN2al10isPadHoldREi
_ZN2al13isPadHoldPlusEi
_ZN2al14isPadHoldMinusEi

_ZN2al12getLeftStickEi
_ZN2al13getRightStickEi

_ZN2al23getPlayerControllerPortEi
_ZN2al21getMainControllerPortEv

_ZN2al22createReplayControllerEj
_ZN2al16ReplayController24getRuntimeTypeInfoStaticEv
_ZN2al23isValidReplayControllerEj
_ZN2al16ReplayController22cRuntimeTypeInfoStaticE = "_ZZN2al16ReplayController24getRuntimeTypeInfoStaticEvE8typeInfo"
_ZN2al14NpadController9calcImpl_Ev
