@smo:100

_ZN4sead19DebugFontMgrJis1Nvn14createInstanceEPNS_4HeapE
_ZN4sead19DebugFontMgrJis1Nvn10initializeEPNS_4HeapEPKcS4_S4_j
_ZN4sead19DebugFontMgrJis1Nvn9sInstanceE
_ZN4sead8ViewportC1ERKNS_18LogicalFrameBufferE
_ZN4sead10TextWriter14setDefaultFontEPNS_8FontBaseE
_ZN4sead10TextWriterC1EPNS_11DrawContextEPKNS_8ViewportE
_ZN4sead10TextWriter13setupGraphicsEPNS_11DrawContextE
_ZN4sead10TextWriter9beginDrawEv
_ZN4sead10TextWriter7endDrawEv
_ZN4sead10TextWriter22setScaleFromFontHeightEf
_ZN4sead10TextWriter20setCursorFromTopLeftERKNS_7Vector2IfEE
_ZN4sead10TextWriter6printfEPKcz
_ZN4seadmlERKNS_7Color4fEf
_ZN4sead10TextWriter10printImpl_EPKcibPNS_9BoundBox2IfEE
_ZN4sead15PrimitiveDrawer3endEv
_ZN4sead15PrimitiveDrawer5beginEv
_ZN4sead15PrimitiveDrawer8drawQuadERKNS0_7QuadArgE
_ZN4sead15PrimitiveDrawer13setProjectionEPKNS_10ProjectionE
_ZN4sead15PrimitiveDrawer9setCameraEPKNS_6CameraE
_ZN4sead15PrimitiveDrawerC1EPNS_11DrawContextE
_ZN4sead11OrthoCameraC1ERKNS_15OrthoProjectionE
_ZN4sead15OrthoProjection13setByViewportERKNS_8ViewportE
_ZN4sead15OrthoProjectionC1Ev
_ZN4sead7Color4f6cWhiteE
